target datalayout = "e-m:e-p270:32:32-p271:32:32-p272:64:64-i64:64-i128:128-f80:128-n8:16:32:64-S128"
target triple = "x86_64-pc-linux-gnu"

; Function Attrs: nounwind uwtable
define internal i32 @ERR_isError(i64 noundef %0) #0 {
  %2 = alloca i64, align 8
  store i64 %0, ptr %2, align 8, !tbaa !29
  %3 = load i64, ptr %2, align 8, !tbaa !29
  %4 = icmp ugt i64 %3, -120
  %5 = zext i1 %4 to i32
  ret i32 %5
}

; Function Attrs: nounwind uwtable
define i32 @FSEv05_isError(i64 noundef %0) #0 {
  %2 = alloca i64, align 8
  store i64 %0, ptr %2, align 8, !tbaa !29
  %3 = load i64, ptr %2, align 8, !tbaa !29
  %4 = call i32 @ERR_isError(i64 noundef %3)
  ret i32 %4
}

; Function Attrs: nounwind uwtable
define i64 @FSEv05_decompress(ptr noundef %0, i64 noundef %1, ptr noundef %2, i64 noundef %3) #0 {
  %5 = alloca i64, align 8
  %6 = alloca ptr, align 8
  %7 = alloca i64, align 8
  %8 = alloca ptr, align 8
  %9 = alloca i64, align 8
  %10 = alloca ptr, align 8
  %11 = alloca ptr, align 8
  %12 = alloca [256 x i16], align 16
  %13 = alloca [4097 x i32], align 16
  %14 = alloca i32, align 4
  %15 = alloca i32, align 4
  %16 = alloca i64, align 8
  %17 = alloca i32, align 4
  store ptr %0, ptr %6, align 8, !tbaa !12
  store i64 %1, ptr %7, align 8, !tbaa !29
  store ptr %2, ptr %8, align 8, !tbaa !12
  store i64 %3, ptr %9, align 8, !tbaa !29
  call void @llvm.lifetime.start.p0(i64 8, ptr %10) #11
  %18 = load ptr, ptr %8, align 8, !tbaa !12
  store ptr %18, ptr %10, align 8, !tbaa !31
  call void @llvm.lifetime.start.p0(i64 8, ptr %11) #11
  %19 = load ptr, ptr %10, align 8, !tbaa !31
  store ptr %19, ptr %11, align 8, !tbaa !31
  call void @llvm.lifetime.start.p0(i64 512, ptr %12) #11
  call void @llvm.lifetime.start.p0(i64 16388, ptr %13) #11
  call void @llvm.lifetime.start.p0(i64 4, ptr %14) #11
  call void @llvm.lifetime.start.p0(i64 4, ptr %15) #11
  store i32 255, ptr %15, align 4, !tbaa !3
  call void @llvm.lifetime.start.p0(i64 8, ptr %16) #11
  %20 = load i64, ptr %9, align 8, !tbaa !29
  %21 = icmp ult i64 %20, 2
  br i1 %21, label %22, label %23

22:                                               ; preds = %4
  store i64 -72, ptr %5, align 8
  store i32 1, ptr %17, align 4
  br label %62

23:                                               ; preds = %4
  %24 = getelementptr inbounds [256 x i16], ptr %12, i64 0, i64 0
  %25 = load ptr, ptr %10, align 8, !tbaa !31
  %26 = load i64, ptr %9, align 8, !tbaa !29
  %27 = call i64 @FSEv05_readNCount(ptr noundef %24, ptr noundef %15, ptr noundef %14, ptr noundef %25, i64 noundef %26)
  store i64 %27, ptr %16, align 8, !tbaa !29
  %28 = load i64, ptr %16, align 8, !tbaa !29
  %29 = call i32 @FSEv05_isError(i64 noundef %28)
  %30 = icmp ne i32 %29, 0
  br i1 %30, label %31, label %33

31:                                               ; preds = %23
  %32 = load i64, ptr %16, align 8, !tbaa !29
  store i64 %32, ptr %5, align 8
  store i32 1, ptr %17, align 4
  br label %62

33:                                               ; preds = %23
  %34 = load i64, ptr %16, align 8, !tbaa !29
  %35 = load i64, ptr %9, align 8, !tbaa !29
  %36 = icmp uge i64 %34, %35
  br i1 %36, label %37, label %38

37:                                               ; preds = %33
  store i64 -72, ptr %5, align 8
  store i32 1, ptr %17, align 4
  br label %62

38:                                               ; preds = %33
  %39 = load i64, ptr %16, align 8, !tbaa !29
  %40 = load ptr, ptr %11, align 8, !tbaa !31
  %41 = getelementptr inbounds nuw i8, ptr %40, i64 %39
  store ptr %41, ptr %11, align 8, !tbaa !31
  %42 = load i64, ptr %16, align 8, !tbaa !29
  %43 = load i64, ptr %9, align 8, !tbaa !29
  %44 = sub i64 %43, %42
  store i64 %44, ptr %9, align 8, !tbaa !29
  %45 = getelementptr inbounds [4097 x i32], ptr %13, i64 0, i64 0
  %46 = getelementptr inbounds [256 x i16], ptr %12, i64 0, i64 0
  %47 = load i32, ptr %15, align 4, !tbaa !3
  %48 = load i32, ptr %14, align 4, !tbaa !3
  %49 = call i64 @FSEv05_buildDTable(ptr noundef %45, ptr noundef %46, i32 noundef %47, i32 noundef %48)
  store i64 %49, ptr %16, align 8, !tbaa !29
  %50 = load i64, ptr %16, align 8, !tbaa !29
  %51 = call i32 @FSEv05_isError(i64 noundef %50)
  %52 = icmp ne i32 %51, 0
  br i1 %52, label %53, label %55

53:                                               ; preds = %38
  %54 = load i64, ptr %16, align 8, !tbaa !29
  store i64 %54, ptr %5, align 8
  store i32 1, ptr %17, align 4
  br label %62

55:                                               ; preds = %38
  %56 = load ptr, ptr %6, align 8, !tbaa !12
  %57 = load i64, ptr %7, align 8, !tbaa !29
  %58 = load ptr, ptr %11, align 8, !tbaa !31
  %59 = load i64, ptr %9, align 8, !tbaa !29
  %60 = getelementptr inbounds [4097 x i32], ptr %13, i64 0, i64 0
  %61 = call i64 @FSEv05_decompress_usingDTable(ptr noundef %56, i64 noundef %57, ptr noundef %58, i64 noundef %59, ptr noundef %60)
  store i64 %61, ptr %5, align 8
  store i32 1, ptr %17, align 4
  br label %62

62:                                               ; preds = %55, %53, %37, %31, %22
  call void @llvm.lifetime.end.p0(i64 8, ptr %16) #11
  call void @llvm.lifetime.end.p0(i64 4, ptr %15) #11
  call void @llvm.lifetime.end.p0(i64 4, ptr %14) #11
  call void @llvm.lifetime.end.p0(i64 16388, ptr %13) #11
  call void @llvm.lifetime.end.p0(i64 512, ptr %12) #11
  call void @llvm.lifetime.end.p0(i64 8, ptr %11) #11
  call void @llvm.lifetime.end.p0(i64 8, ptr %10) #11
  %63 = load i64, ptr %5, align 8
  ret i64 %63
}